target datalayout = "e-m:e-p270:32:32-p271:32:32-p272:64:64-i64:64-i128:128-f80:128-n8:16:32:64-S128"
target triple = "x86_64-unknown-linux-gnu"

%"class.grpc_core::PartySyncUsingAtomics" = type { %"struct.std::atomic" }
%"struct.std::atomic" = type { %"struct.std::__atomic_base" }
%"struct.std::__atomic_base" = type { i64 }
%"class.grpc_core::Wakeable" = type { ptr }
%"class.grpc_core::Activity::ScopedActivity" = type { ptr }
%"class.grpc_core::Party" = type { %"class.grpc_core::Activity", %"class.grpc_core::Wakeable", %"class.grpc_core::PartySyncUsingAtomics", ptr, i8, [16 x %"struct.std::atomic.2"] }
%"class.grpc_core::Activity" = type { %"class.grpc_core::Orphanable" }
%"class.grpc_core::Orphanable" = type { ptr }
%"struct.std::atomic.2" = type { %"struct.std::__atomic_base.3" }
%"struct.std::__atomic_base.3" = type { ptr }

@_ZN9grpc_core8Activity19g_current_activity_E = external thread_local global ptr, align 8

; Function Attrs: uwtable
define linkonce_odr hidden noundef ptr @_ZTWN9grpc_core8Activity19g_current_activity_E() #11 comdat {
  br i1 icmp ne (ptr @_ZTHN9grpc_core8Activity19g_current_activity_E, ptr null), label %1, label %2

1:                                                ; preds = %0
  call void @_ZTHN9grpc_core8Activity19g_current_activity_E()
  br label %2

2:                                                ; preds = %1, %0
  %3 = call align 8 ptr @llvm.threadlocal.address.p0(ptr align 8 @_ZN9grpc_core8Activity19g_current_activity_E)
  ret ptr %3
}

; Function Attrs: mustprogress nounwind uwtable
define linkonce_odr void @_ZN9grpc_core8Activity14ScopedActivityD2Ev(ptr noundef nonnull align 8 dereferenceable(8) %this) unnamed_addr #4 comdat align 2 {
entry:
  %this.addr = alloca ptr, align 8
  store ptr %this, ptr %this.addr, align 8
  %this1 = load ptr, ptr %this.addr, align 8
  %prior_activity_ = getelementptr inbounds %"class.grpc_core::Activity::ScopedActivity", ptr %this1, i32 0, i32 0
  %0 = load ptr, ptr %prior_activity_, align 8
  %1 = call ptr @_ZTWN9grpc_core8Activity19g_current_activity_E()
  store ptr %0, ptr %1, align 8
  ret void
}

; Function Attrs: mustprogress uwtable
define linkonce_odr void @_ZN9grpc_core8Activity14ScopedActivityC2EPS0_(ptr noundef nonnull align 8 dereferenceable(8) %this, ptr noundef %activity) unnamed_addr #5 comdat align 2 {
entry:
  %this.addr = alloca ptr, align 8
  %activity.addr = alloca ptr, align 8
  store ptr %this, ptr %this.addr, align 8
  store ptr %activity, ptr %activity.addr, align 8
  %this1 = load ptr, ptr %this.addr, align 8
  %prior_activity_ = getelementptr inbounds %"class.grpc_core::Activity::ScopedActivity", ptr %this1, i32 0, i32 0
  %0 = call ptr @_ZTWN9grpc_core8Activity19g_current_activity_E()
  %1 = load ptr, ptr %0, align 8
  store ptr %1, ptr %prior_activity_, align 8
  %2 = load ptr, ptr %activity.addr, align 8
  %3 = call ptr @_ZTWN9grpc_core8Activity19g_current_activity_E()
  store ptr %2, ptr %3, align 8
  ret void
}

; Function Attrs: mustprogress nounwind uwtable
define noundef zeroext i1 @_ZN9grpc_core21PartySyncUsingAtomics12UnreffedLastEv(ptr noundef nonnull align 8 dereferenceable(8) %this) #4 align 2 {
entry:
  %this.addr.i = alloca ptr, align 8
  %__i.addr.i = alloca i64, align 8
  %__m.addr.i = alloca i32, align 4
  %.atomictmp.i = alloca i64, align 8
  %atomic-temp.i = alloca i64, align 8
  %this.addr = alloca ptr, align 8
  %prev_state = alloca i64, align 8
  store ptr %this, ptr %this.addr, align 8
  %this1 = load ptr, ptr %this.addr, align 8
  %state_ = getelementptr inbounds %"class.grpc_core::PartySyncUsingAtomics", ptr %this1, i32 0, i32 0
  store ptr %state_, ptr %this.addr.i, align 8
  store i64 38654705664, ptr %__i.addr.i, align 8
  store i32 4, ptr %__m.addr.i, align 4
  %this1.i = load ptr, ptr %this.addr.i, align 8
  %0 = load i32, ptr %__m.addr.i, align 4
  %1 = load i64, ptr %__i.addr.i, align 8
  store i64 %1, ptr %.atomictmp.i, align 8
  switch i32 %0, label %monotonic.i [
    i32 1, label %acquire.i
    i32 2, label %acquire.i
    i32 3, label %release.i
    i32 4, label %acqrel.i
    i32 5, label %seqcst.i
  ]

monotonic.i:                                      ; preds = %entry
  %2 = load i64, ptr %.atomictmp.i, align 8
  %3 = atomicrmw or ptr %this1.i, i64 %2 monotonic, align 8
  store i64 %3, ptr %atomic-temp.i, align 8
  br label %_ZNSt13__atomic_baseImE8fetch_orEmSt12memory_order.exit

acquire.i:                                        ; preds = %entry, %entry
  %4 = load i64, ptr %.atomictmp.i, align 8
  %5 = atomicrmw or ptr %this1.i, i64 %4 acquire, align 8
  store i64 %5, ptr %atomic-temp.i, align 8
  br label %_ZNSt13__atomic_baseImE8fetch_orEmSt12memory_order.exit

release.i:                                        ; preds = %entry
  %6 = load i64, ptr %.atomictmp.i, align 8
  %7 = atomicrmw or ptr %this1.i, i64 %6 release, align 8
  store i64 %7, ptr %atomic-temp.i, align 8
  br label %_ZNSt13__atomic_baseImE8fetch_orEmSt12memory_order.exit

acqrel.i:                                         ; preds = %entry
  %8 = load i64, ptr %.atomictmp.i, align 8
  %9 = atomicrmw or ptr %this1.i, i64 %8 acq_rel, align 8
  store i64 %9, ptr %atomic-temp.i, align 8
  br label %_ZNSt13__atomic_baseImE8fetch_orEmSt12memory_order.exit

seqcst.i:                                         ; preds = %entry
  %10 = load i64, ptr %.atomictmp.i, align 8
  %11 = atomicrmw or ptr %this1.i, i64 %10 seq_cst, align 8
  store i64 %11, ptr %atomic-temp.i, align 8
  br label %_ZNSt13__atomic_baseImE8fetch_orEmSt12memory_order.exit

_ZNSt13__atomic_baseImE8fetch_orEmSt12memory_order.exit: ; preds = %seqcst.i, %acqrel.i, %release.i, %acquire.i, %monotonic.i
  %12 = load i64, ptr %atomic-temp.i, align 8
  store i64 %12, ptr %prev_state, align 8
  %13 = load i64, ptr %prev_state, align 8
  %and = and i64 %13, 34359738368
  %cmp = icmp eq i64 %and, 0
  ret i1 %cmp
}

; Function Attrs: mustprogress uwtable
define void @_ZN9grpc_core5Party11PartyIsOverEv(ptr noundef nonnull align 8 dereferenceable(168) %this) #5 align 2 personality ptr @__gxx_personality_v0 {
entry:
  %this.addr = alloca ptr, align 8
  %activity = alloca %"class.grpc_core::Activity::ScopedActivity", align 8
  %exn.slot = alloca ptr, align 8
  %ehselector.slot = alloca i32, align 4
  store ptr %this, ptr %this.addr, align 8
  %this1 = load ptr, ptr %this.addr, align 8
  call void @_ZN9grpc_core8Activity14ScopedActivityC2EPS0_(ptr noundef nonnull align 8 dereferenceable(8) %activity, ptr noundef %this1)
  %vtable = load ptr, ptr %this1, align 8
  %vfn = getelementptr inbounds ptr, ptr %vtable, i64 10
  %0 = load ptr, ptr %vfn, align 8
  invoke void %0(ptr noundef nonnull align 8 dereferenceable(168) %this1)
          to label %invoke.cont unwind label %lpad

invoke.cont:                                      ; preds = %entry
  call void @_ZN9grpc_core8Activity14ScopedActivityD2Ev(ptr noundef nonnull align 8 dereferenceable(8) %activity) #3
  ret void

lpad:                                             ; preds = %entry
  %1 = landingpad { ptr, i32 }
          cleanup
  %2 = extractvalue { ptr, i32 } %1, 0
  store ptr %2, ptr %exn.slot, align 8
  %3 = extractvalue { ptr, i32 } %1, 1
  store i32 %3, ptr %ehselector.slot, align 4
  call void @_ZN9grpc_core8Activity14ScopedActivityD2Ev(ptr noundef nonnull align 8 dereferenceable(8) %activity) #3
  br label %eh.resume

eh.resume:                                        ; preds = %lpad
  %exn = load ptr, ptr %exn.slot, align 8
  %sel = load i32, ptr %ehselector.slot, align 4
  %lpad.val = insertvalue { ptr, i32 } poison, ptr %exn, 0
  %lpad.val2 = insertvalue { ptr, i32 } %lpad.val, i32 %sel, 1
  resume { ptr, i32 } %lpad.val2
}

; Function Attrs: mustprogress nounwind uwtable
define linkonce_odr noundef zeroext i1 @_ZN9grpc_core21PartySyncUsingAtomics5UnrefEv(ptr noundef nonnull align 8 dereferenceable(8) %this) #4 comdat align 2 {
entry:
  %this.addr.i = alloca ptr, align 8
  %__i.addr.i = alloca i64, align 8
  %__m.addr.i = alloca i32, align 4
  %.atomictmp.i = alloca i64, align 8
  %atomic-temp.i = alloca i64, align 8
  %retval = alloca i1, align 1
  %this.addr = alloca ptr, align 8
  %prev_state = alloca i64, align 8
  store ptr %this, ptr %this.addr, align 8
  %this1 = load ptr, ptr %this.addr, align 8
  %state_ = getelementptr inbounds %"class.grpc_core::PartySyncUsingAtomics", ptr %this1, i32 0, i32 0
  store ptr %state_, ptr %this.addr.i, align 8
  store i64 1099511627776, ptr %__i.addr.i, align 8
  store i32 4, ptr %__m.addr.i, align 4
  %this1.i = load ptr, ptr %this.addr.i, align 8
  %0 = load i32, ptr %__m.addr.i, align 4
  %1 = load i64, ptr %__i.addr.i, align 8
  store i64 %1, ptr %.atomictmp.i, align 8
  switch i32 %0, label %monotonic.i [
    i32 1, label %acquire.i
    i32 2, label %acquire.i
    i32 3, label %release.i
    i32 4, label %acqrel.i
    i32 5, label %seqcst.i
  ]

monotonic.i:                                      ; preds = %entry
  %2 = load i64, ptr %.atomictmp.i, align 8
  %3 = atomicrmw sub ptr %this1.i, i64 %2 monotonic, align 8
  store i64 %3, ptr %atomic-temp.i, align 8
  br label %_ZNSt13__atomic_baseImE9fetch_subEmSt12memory_order.exit

acquire.i:                                        ; preds = %entry, %entry
  %4 = load i64, ptr %.atomictmp.i, align 8
  %5 = atomicrmw sub ptr %this1.i, i64 %4 acquire, align 8
  store i64 %5, ptr %atomic-temp.i, align 8
  br label %_ZNSt13__atomic_baseImE9fetch_subEmSt12memory_order.exit

release.i:                                        ; preds = %entry
  %6 = load i64, ptr %.atomictmp.i, align 8
  %7 = atomicrmw sub ptr %this1.i, i64 %6 release, align 8
  store i64 %7, ptr %atomic-temp.i, align 8
  br label %_ZNSt13__atomic_baseImE9fetch_subEmSt12memory_order.exit

acqrel.i:                                         ; preds = %entry
  %8 = load i64, ptr %.atomictmp.i, align 8
  %9 = atomicrmw sub ptr %this1.i, i64 %8 acq_rel, align 8
  store i64 %9, ptr %atomic-temp.i, align 8
  br label %_ZNSt13__atomic_baseImE9fetch_subEmSt12memory_order.exit

seqcst.i:                                         ; preds = %entry
  %10 = load i64, ptr %.atomictmp.i, align 8
  %11 = atomicrmw sub ptr %this1.i, i64 %10 seq_cst, align 8
  store i64 %11, ptr %atomic-temp.i, align 8
  br label %_ZNSt13__atomic_baseImE9fetch_subEmSt12memory_order.exit

_ZNSt13__atomic_baseImE9fetch_subEmSt12memory_order.exit: ; preds = %seqcst.i, %acqrel.i, %release.i, %acquire.i, %monotonic.i
  %12 = load i64, ptr %atomic-temp.i, align 8
  store i64 %12, ptr %prev_state, align 8
  %13 = load i64, ptr %prev_state, align 8
  %and = and i64 %13, -1099511627776
  %cmp = icmp eq i64 %and, 1099511627776
  br i1 %cmp, label %if.then, label %if.end

if.then:                                          ; preds = %_ZNSt13__atomic_baseImE9fetch_subEmSt12memory_order.exit
  %call2 = call noundef zeroext i1 @_ZN9grpc_core21PartySyncUsingAtomics12UnreffedLastEv(ptr noundef nonnull align 8 dereferenceable(8) %this1)
  store i1 %call2, ptr %retval, align 1
  br label %return

if.end:                                           ; preds = %_ZNSt13__atomic_baseImE9fetch_subEmSt12memory_order.exit
  store i1 false, ptr %retval, align 1
  br label %return

return:                                           ; preds = %if.end, %if.then
  %14 = load i1, ptr %retval, align 1
  ret i1 %14
}

; Function Attrs: mustprogress uwtable
define linkonce_odr void @_ZN9grpc_core5Party5UnrefEv(ptr noundef nonnull align 8 dereferenceable(168) %this) #5 comdat align 2 {
entry:
  %this.addr = alloca ptr, align 8
  store ptr %this, ptr %this.addr, align 8
  %this1 = load ptr, ptr %this.addr, align 8
  %sync_ = getelementptr inbounds %"class.grpc_core::Party", ptr %this1, i32 0, i32 2
  %call = call noundef zeroext i1 @_ZN9grpc_core21PartySyncUsingAtomics5UnrefEv(ptr noundef nonnull align 8 dereferenceable(8) %sync_)
  br i1 %call, label %if.then, label %if.end

if.then:                                          ; preds = %entry
  call void @_ZN9grpc_core5Party11PartyIsOverEv(ptr noundef nonnull align 8 dereferenceable(168) %this1)
  br label %if.end

if.end:                                           ; preds = %if.then, %entry
  ret void
}

; Function Attrs: mustprogress uwtable
define void @_ZN9grpc_core5Party4DropEt(ptr noundef nonnull align 8 dereferenceable(168) %this, i16 noundef zeroext %0) unnamed_addr #5 align 2 {
entry:
  %this.addr = alloca ptr, align 8
  %.addr = alloca i16, align 2
  store ptr %this, ptr %this.addr, align 8
  store i16 %0, ptr %.addr, align 2
  %this1 = load ptr, ptr %this.addr, align 8
  call void @_ZN9grpc_core5Party5UnrefEv(ptr noundef nonnull align 8 dereferenceable(168) %this1)
  ret void
}

; Function Attrs: uwtable
define void @_ZThn8_N9grpc_core5Party4DropEt(ptr noundef %this, i16 noundef zeroext %0) unnamed_addr #0 align 2 {
entry:
  %this.addr = alloca ptr, align 8
  %.addr = alloca i16, align 2
  store ptr %this, ptr %this.addr, align 8
  store i16 %0, ptr %.addr, align 2
  %this1 = load ptr, ptr %this.addr, align 8
  %1 = getelementptr inbounds i8, ptr %this1, i64 -8
  %2 = load i16, ptr %.addr, align 2
  tail call void @_ZN9grpc_core5Party4DropEt(ptr noundef nonnull align 8 dereferenceable(168) %1, i16 noundef zeroext %2)
  ret void
}