; Function Attrs: uwtable
define void @_ZThn8_N9grpc_core5Party4DropEt(ptr noundef %this, i16 zeroext %0) unnamed_addr #13 align 2 personality ptr @__gxx_personality_v0 {
entry:
  %1 = getelementptr inbounds i8, ptr %this, i64 -8
  %sync_.i.i = getelementptr inbounds i8, ptr %this, i64 8
  %2 = atomicrmw sub ptr %sync_.i.i, i64 1099511627776 acq_rel, align 8
  %and.i.i.i = and i64 %2, -1099511627776
  %cmp.i.i.i = icmp eq i64 %and.i.i.i, 1099511627776
  br i1 %cmp.i.i.i, label %_ZN9grpc_core21PartySyncUsingAtomics5UnrefEv.exit.i.i, label %_ZN9grpc_core5Party4DropEt.exit

_ZN9grpc_core21PartySyncUsingAtomics5UnrefEv.exit.i.i: ; preds = %entry
  %3 = atomicrmw or ptr %sync_.i.i, i64 38654705664 acq_rel, align 8
  %and.i.i.i.i = and i64 %3, 34359738368
  %cmp.i.i.i.i = icmp eq i64 %and.i.i.i.i, 0
  br i1 %cmp.i.i.i.i, label %if.then.i.i, label %_ZN9grpc_core5Party4DropEt.exit

if.then.i.i:                                      ; preds = %_ZN9grpc_core21PartySyncUsingAtomics5UnrefEv.exit.i.i
  br i1 icmp ne (ptr @_ZTHN9grpc_core8Activity19g_current_activity_E, ptr null), label %4, label %_ZTWN9grpc_core8Activity19g_current_activity_E.exit.i.i.i.i

4:                                                ; preds = %if.then.i.i
  tail call void @_ZTHN9grpc_core8Activity19g_current_activity_E()
  br label %_ZTWN9grpc_core8Activity19g_current_activity_E.exit.i.i.i.i

_ZTWN9grpc_core8Activity19g_current_activity_E.exit.i.i.i.i: ; preds = %4, %if.then.i.i
  %5 = tail call noundef align 8 ptr @llvm.threadlocal.address.p0(ptr align 8 @_ZN9grpc_core8Activity19g_current_activity_E)
  %6 = load ptr, ptr %5, align 8
  br i1 icmp ne (ptr @_ZTHN9grpc_core8Activity19g_current_activity_E, ptr null), label %7, label %_ZN9grpc_core8Activity14ScopedActivityC2EPS0_.exit.i.i.i

7:                                                ; preds = %_ZTWN9grpc_core8Activity19g_current_activity_E.exit.i.i.i.i
  tail call void @_ZTHN9grpc_core8Activity19g_current_activity_E()
  br label %_ZN9grpc_core8Activity14ScopedActivityC2EPS0_.exit.i.i.i

_ZN9grpc_core8Activity14ScopedActivityC2EPS0_.exit.i.i.i: ; preds = %7, %_ZTWN9grpc_core8Activity19g_current_activity_E.exit.i.i.i.i
  store ptr %1, ptr %5, align 8
  %vtable.i.i.i = load ptr, ptr %1, align 8
  %vfn.i.i.i = getelementptr inbounds i8, ptr %vtable.i.i.i, i64 80
  %8 = load ptr, ptr %vfn.i.i.i, align 8
  invoke void %8(ptr noundef nonnull align 8 dereferenceable(168) %1)
          to label %invoke.cont.i.i.i unwind label %lpad.i.i.i

invoke.cont.i.i.i:                                ; preds = %_ZN9grpc_core8Activity14ScopedActivityC2EPS0_.exit.i.i.i
  br i1 icmp ne (ptr @_ZTHN9grpc_core8Activity19g_current_activity_E, ptr null), label %9, label %_ZN9grpc_core5Party11PartyIsOverEv.exit.i.i

9:                                                ; preds = %invoke.cont.i.i.i
  tail call void @_ZTHN9grpc_core8Activity19g_current_activity_E() #26
  br label %_ZN9grpc_core5Party11PartyIsOverEv.exit.i.i

lpad.i.i.i:                                       ; preds = %_ZN9grpc_core8Activity14ScopedActivityC2EPS0_.exit.i.i.i
  %10 = landingpad { ptr, i32 }
          cleanup
  br i1 icmp ne (ptr @_ZTHN9grpc_core8Activity19g_current_activity_E, ptr null), label %11, label %_ZN9grpc_core8Activity14ScopedActivityD2Ev.exit3.i.i.i

11:                                               ; preds = %lpad.i.i.i
  tail call void @_ZTHN9grpc_core8Activity19g_current_activity_E() #26
  br label %_ZN9grpc_core8Activity14ScopedActivityD2Ev.exit3.i.i.i

_ZN9grpc_core8Activity14ScopedActivityD2Ev.exit3.i.i.i: ; preds = %11, %lpad.i.i.i
  store ptr %6, ptr %5, align 8
  resume { ptr, i32 } %10

_ZN9grpc_core5Party11PartyIsOverEv.exit.i.i:      ; preds = %9, %invoke.cont.i.i.i
  store ptr %6, ptr %5, align 8
  br label %_ZN9grpc_core5Party4DropEt.exit

_ZN9grpc_core5Party4DropEt.exit:                  ; preds = %entry, %_ZN9grpc_core21PartySyncUsingAtomics5UnrefEv.exit.i.i, %_ZN9grpc_core5Party11PartyIsOverEv.exit.i.i
  ret void
}